; ModuleID = 'source-C-CXX/11/1378.cpp'
source_filename = "source-C-CXX/11/1378.cpp"
target datalayout = "e-m:e-p270:32:32-p271:32:32-p272:64:64-i64:64-f80:128-n8:16:32:64-S128"
target triple = "x86_64-pc-linux-gnu"

%"class.std::ios_base::Init" = type { i8 }
%"class.std::basic_istream" = type { i32 (...)**, i64, %"class.std::basic_ios" }
%"class.std::basic_ios" = type { %"class.std::ios_base", %"class.std::basic_ostream"*, i8, i8, %"class.std::basic_streambuf"*, %"class.std::ctype"*, %"class.std::num_put"*, %"class.std::num_get"* }
%"class.std::ios_base" = type { i32 (...)**, i64, i64, i32, i32, i32, %"struct.std::ios_base::_Callback_list"*, %"struct.std::ios_base::_Words", [8 x %"struct.std::ios_base::_Words"], i32, %"struct.std::ios_base::_Words"*, %"class.std::locale" }
%"struct.std::ios_base::_Callback_list" = type { %"struct.std::ios_base::_Callback_list"*, void (i32, %"class.std::ios_base"*, i32)*, i32, i32 }
%"struct.std::ios_base::_Words" = type { i8*, i64 }
%"class.std::locale" = type { %"class.std::locale::_Impl"* }
%"class.std::locale::_Impl" = type { i32, %"class.std::locale::facet"**, i64, %"class.std::locale::facet"**, i8** }
%"class.std::locale::facet" = type <{ i32 (...)**, i32, [4 x i8] }>
%"class.std::basic_ostream" = type { i32 (...)**, %"class.std::basic_ios" }
%"class.std::basic_streambuf" = type { i32 (...)**, i8*, i8*, i8*, i8*, i8*, i8*, %"class.std::locale" }
%"class.std::ctype" = type <{ %"class.std::locale::facet.base", [4 x i8], %struct.__locale_struct*, i8, [7 x i8], i32*, i32*, i16*, i8, [256 x i8], [256 x i8], i8, [6 x i8] }>
%"class.std::locale::facet.base" = type <{ i32 (...)**, i32 }>
%struct.__locale_struct = type { [13 x %struct.__locale_data*], i16*, i32*, i32*, [13 x i8*] }
%struct.__locale_data = type opaque
%"class.std::num_put" = type { %"class.std::locale::facet.base", [4 x i8] }
%"class.std::num_get" = type { %"class.std::locale::facet.base", [4 x i8] }

@_ZStL8__ioinit = internal global %"class.std::ios_base::Init" zeroinitializer, align 1
@__dso_handle = external hidden global i8
@_ZSt3cin = external global %"class.std::basic_istream", align 8
@_ZSt4cout = external global %"class.std::basic_ostream", align 8
@llvm.global_ctors = appending global [1 x { i32, void ()*, i8* }] [{ i32, void ()*, i8* } { i32 65535, void ()* @_GLOBAL__sub_I_1378.cpp, i8* null }]

declare void @_ZNSt8ios_base4InitC1Ev(%"class.std::ios_base::Init"* nonnull align 1 dereferenceable(1)) unnamed_addr #0

; Function Attrs: nounwind
declare void @_ZNSt8ios_base4InitD1Ev(%"class.std::ios_base::Init"* nonnull align 1 dereferenceable(1)) unnamed_addr #1

; Function Attrs: nofree nounwind
declare i32 @__cxa_atexit(void (i8*)*, i8*, i8*) local_unnamed_addr #2

; Function Attrs: mustprogress norecurse sspstrong uwtable
define dso_local i32 @main() local_unnamed_addr #3 {
  %1 = alloca i32, align 4
  %2 = alloca [15 x i32], align 16
  %3 = bitcast i32* %1 to i8*
  call void @llvm.lifetime.start.p0i8(i64 4, i8* nonnull %3) #8
  %4 = bitcast [15 x i32]* %2 to i8*
  call void @llvm.lifetime.start.p0i8(i64 60, i8* nonnull %4) #8
  %5 = call nonnull align 8 dereferenceable(16) %"class.std::basic_istream"* @_ZNSirsERi(%"class.std::basic_istream"* nonnull align 8 dereferenceable(16) @_ZSt3cin, i32* nonnull align 4 dereferenceable(4) %1)
  %6 = bitcast %"class.std::basic_istream"* %5 to i8**
  %7 = load i8*, i8** %6, align 8, !tbaa !5
  %8 = getelementptr i8, i8* %7, i64 -24
  %9 = bitcast i8* %8 to i64*
  %10 = load i64, i64* %9, align 8
  %11 = bitcast %"class.std::basic_istream"* %5 to i8*
  %12 = add nsw i64 %10, 32
  %13 = getelementptr inbounds i8, i8* %11, i64 %12
  %14 = bitcast i8* %13 to i32*
  %15 = load i32, i32* %14, align 8, !tbaa !8
  %16 = and i32 %15, 5
  %17 = icmp ne i32 %16, 0
  %18 = load i32, i32* %1, align 4
  %19 = icmp eq i32 %18, -1
  %20 = select i1 %17, i1 true, i1 %19
  br i1 %20, label %136, label %21

21:                                               ; preds = %0, %29
  %22 = phi i32 [ %30, %29 ], [ %18, %0 ]
  %23 = phi i64 [ %31, %29 ], [ 0, %0 ]
  %24 = getelementptr inbounds [15 x i32], [15 x i32]* %2, i64 0, i64 %23
  store i32 %22, i32* %24, align 4, !tbaa !18
  %25 = call nonnull align 8 dereferenceable(16) %"class.std::basic_istream"* @_ZNSirsERi(%"class.std::basic_istream"* nonnull align 8 dereferenceable(16) @_ZSt3cin, i32* nonnull align 4 dereferenceable(4) %1)
  %26 = load i32, i32* %1, align 4, !tbaa !18
  %27 = icmp eq i32 %26, 0
  %28 = add nuw i64 %23, 1
  br i1 %27, label %32, label %29

29:                                               ; preds = %21, %116
  %30 = phi i32 [ %26, %21 ], [ %133, %116 ]
  %31 = phi i64 [ %28, %21 ], [ 0, %116 ]
  br label %21, !llvm.loop !19

32:                                               ; preds = %21
  %33 = add i64 %23, 1
  %34 = and i64 %33, 4294967295
  %35 = icmp ult i64 %34, 8
  %36 = and i64 %33, 7
  %37 = sub nsw i64 %34, %36
  %38 = icmp eq i64 %36, 0
  br label %39

39:                                               ; preds = %32, %85
  %40 = phi i64 [ 0, %32 ], [ %87, %85 ]
  %41 = phi i32 [ 0, %32 ], [ %86, %85 ]
  %42 = getelementptr inbounds [15 x i32], [15 x i32]* %2, i64 0, i64 %40
  %43 = load i32, i32* %42, align 4, !tbaa !18
  %44 = shl nsw i32 %43, 1
  br i1 %35, label %72, label %45

45:                                               ; preds = %39
  %46 = insertelement <4 x i32> <i32 poison, i32 0, i32 0, i32 0>, i32 %41, i32 0
  %47 = insertelement <4 x i32> poison, i32 %44, i32 0
  %48 = shufflevector <4 x i32> %47, <4 x i32> poison, <4 x i32> zeroinitializer
  %49 = insertelement <4 x i32> poison, i32 %44, i32 0
  %50 = shufflevector <4 x i32> %49, <4 x i32> poison, <4 x i32> zeroinitializer
  br label %51

51:                                               ; preds = %51, %45
  %52 = phi i64 [ 0, %45 ], [ %67, %51 ]
  %53 = phi <4 x i32> [ %46, %45 ], [ %65, %51 ]
  %54 = phi <4 x i32> [ zeroinitializer, %45 ], [ %66, %51 ]
  %55 = getelementptr inbounds [15 x i32], [15 x i32]* %2, i64 0, i64 %52
  %56 = bitcast i32* %55 to <4 x i32>*
  %57 = load <4 x i32>, <4 x i32>* %56, align 16, !tbaa !18
  %58 = getelementptr inbounds i32, i32* %55, i64 4
  %59 = bitcast i32* %58 to <4 x i32>*
  %60 = load <4 x i32>, <4 x i32>* %59, align 16, !tbaa !18
  %61 = icmp eq <4 x i32> %57, %48
  %62 = icmp eq <4 x i32> %60, %50
  %63 = zext <4 x i1> %61 to <4 x i32>
  %64 = zext <4 x i1> %62 to <4 x i32>
  %65 = add <4 x i32> %53, %63
  %66 = add <4 x i32> %54, %64
  %67 = add nuw i64 %52, 8
  %68 = icmp eq i64 %67, %37
  br i1 %68, label %69, label %51, !llvm.loop !21

69:                                               ; preds = %51
  %70 = add <4 x i32> %66, %65
  %71 = call i32 @llvm.vector.reduce.add.v4i32(<4 x i32> %70)
  br i1 %38, label %85, label %72

72:                                               ; preds = %39, %69
  %73 = phi i64 [ 0, %39 ], [ %37, %69 ]
  %74 = phi i32 [ %41, %39 ], [ %71, %69 ]
  br label %75

75:                                               ; preds = %72, %75
  %76 = phi i64 [ %83, %75 ], [ %73, %72 ]
  %77 = phi i32 [ %82, %75 ], [ %74, %72 ]
  %78 = getelementptr inbounds [15 x i32], [15 x i32]* %2, i64 0, i64 %76
  %79 = load i32, i32* %78, align 4, !tbaa !18
  %80 = icmp eq i32 %79, %44
  %81 = zext i1 %80 to i32
  %82 = add nsw i32 %77, %81
  %83 = add nuw nsw i64 %76, 1
  %84 = icmp eq i64 %83, %34
  br i1 %84, label %85, label %75, !llvm.loop !23

85:                                               ; preds = %75, %69
  %86 = phi i32 [ %71, %69 ], [ %82, %75 ]
  %87 = add nuw nsw i64 %40, 1
  %88 = icmp eq i64 %87, %34
  br i1 %88, label %89, label %39, !llvm.loop !25

89:                                               ; preds = %85
  %90 = call nonnull align 8 dereferenceable(8) %"class.std::basic_ostream"* @_ZNSolsEi(%"class.std::basic_ostream"* nonnull align 8 dereferenceable(8) @_ZSt4cout, i32 %86)
  %91 = bitcast %"class.std::basic_ostream"* %90 to i8**
  %92 = load i8*, i8** %91, align 8, !tbaa !5
  %93 = getelementptr i8, i8* %92, i64 -24
  %94 = bitcast i8* %93 to i64*
  %95 = load i64, i64* %94, align 8
  %96 = bitcast %"class.std::basic_ostream"* %90 to i8*
  %97 = add nsw i64 %95, 240
  %98 = getelementptr inbounds i8, i8* %96, i64 %97
  %99 = bitcast i8* %98 to %"class.std::ctype"**
  %100 = load %"class.std::ctype"*, %"class.std::ctype"** %99, align 8, !tbaa !26
  %101 = icmp eq %"class.std::ctype"* %100, null
  br i1 %101, label %102, label %103

102:                                              ; preds = %89
  call void @_ZSt16__throw_bad_castv() #9
  unreachable

103:                                              ; preds = %89
  %104 = getelementptr inbounds %"class.std::ctype", %"class.std::ctype"* %100, i64 0, i32 8
  %105 = load i8, i8* %104, align 8, !tbaa !29
  %106 = icmp eq i8 %105, 0
  br i1 %106, label %110, label %107

107:                                              ; preds = %103
  %108 = getelementptr inbounds %"class.std::ctype", %"class.std::ctype"* %100, i64 0, i32 9, i64 10
  %109 = load i8, i8* %108, align 1, !tbaa !31
  br label %116

110:                                              ; preds = %103
  call void @_ZNKSt5ctypeIcE13_M_widen_initEv(%"class.std::ctype"* nonnull align 8 dereferenceable(570) %100)
  %111 = bitcast %"class.std::ctype"* %100 to i8 (%"class.std::ctype"*, i8)***
  %112 = load i8 (%"class.std::ctype"*, i8)**, i8 (%"class.std::ctype"*, i8)*** %111, align 8, !tbaa !5
  %113 = getelementptr inbounds i8 (%"class.std::ctype"*, i8)*, i8 (%"class.std::ctype"*, i8)** %112, i64 6
  %114 = load i8 (%"class.std::ctype"*, i8)*, i8 (%"class.std::ctype"*, i8)** %113, align 8
  %115 = call signext i8 %114(%"class.std::ctype"* nonnull align 8 dereferenceable(570) %100, i8 signext 10)
  br label %116

116:                                              ; preds = %107, %110
  %117 = phi i8 [ %109, %107 ], [ %115, %110 ]
  %118 = call nonnull align 8 dereferenceable(8) %"class.std::basic_ostream"* @_ZNSo3putEc(%"class.std::basic_ostream"* nonnull align 8 dereferenceable(8) %90, i8 signext %117)
  %119 = call nonnull align 8 dereferenceable(8) %"class.std::basic_ostream"* @_ZNSo5flushEv(%"class.std::basic_ostream"* nonnull align 8 dereferenceable(8) %118)
  %120 = call nonnull align 8 dereferenceable(16) %"class.std::basic_istream"* @_ZNSirsERi(%"class.std::basic_istream"* nonnull align 8 dereferenceable(16) @_ZSt3cin, i32* nonnull align 4 dereferenceable(4) %1)
  %121 = bitcast %"class.std::basic_istream"* %120 to i8**
  %122 = load i8*, i8** %121, align 8, !tbaa !5
  %123 = getelementptr i8, i8* %122, i64 -24
  %124 = bitcast i8* %123 to i64*
  %125 = load i64, i64* %124, align 8
  %126 = bitcast %"class.std::basic_istream"* %120 to i8*
  %127 = add nsw i64 %125, 32
  %128 = getelementptr inbounds i8, i8* %126, i64 %127
  %129 = bitcast i8* %128 to i32*
  %130 = load i32, i32* %129, align 8, !tbaa !8
  %131 = and i32 %130, 5
  %132 = icmp ne i32 %131, 0
  %133 = load i32, i32* %1, align 4
  %134 = icmp eq i32 %133, -1
  %135 = select i1 %132, i1 true, i1 %134
  br i1 %135, label %136, label %29

136:                                              ; preds = %116, %0
  call void @llvm.lifetime.end.p0i8(i64 60, i8* nonnull %4) #8
  call void @llvm.lifetime.end.p0i8(i64 4, i8* nonnull %3) #8
  ret i32 0
}

; Function Attrs: argmemonly mustprogress nofree nosync nounwind willreturn
declare void @llvm.lifetime.start.p0i8(i64 immarg, i8* nocapture) #4

declare nonnull align 8 dereferenceable(16) %"class.std::basic_istream"* @_ZNSirsERi(%"class.std::basic_istream"* nonnull align 8 dereferenceable(16), i32* nonnull align 4 dereferenceable(4)) local_unnamed_addr #0

declare nonnull align 8 dereferenceable(8) %"class.std::basic_ostream"* @_ZNSolsEi(%"class.std::basic_ostream"* nonnull align 8 dereferenceable(8), i32) local_unnamed_addr #0

; Function Attrs: argmemonly mustprogress nofree nosync nounwind willreturn
declare void @llvm.lifetime.end.p0i8(i64 immarg, i8* nocapture) #4

declare nonnull align 8 dereferenceable(8) %"class.std::basic_ostream"* @_ZNSo3putEc(%"class.std::basic_ostream"* nonnull align 8 dereferenceable(8), i8 signext) local_unnamed_addr #0

declare nonnull align 8 dereferenceable(8) %"class.std::basic_ostream"* @_ZNSo5flushEv(%"class.std::basic_ostream"* nonnull align 8 dereferenceable(8)) local_unnamed_addr #0

; Function Attrs: noreturn
declare void @_ZSt16__throw_bad_castv() local_unnamed_addr #5

declare void @_ZNKSt5ctypeIcE13_M_widen_initEv(%"class.std::ctype"* nonnull align 8 dereferenceable(570)) local_unnamed_addr #0

; Function Attrs: sspstrong uwtable
define internal void @_GLOBAL__sub_I_1378.cpp() #6 section ".text.startup" {
  tail call void @_ZNSt8ios_base4InitC1Ev(%"class.std::ios_base::Init"* nonnull align 1 dereferenceable(1) @_ZStL8__ioinit)
  %1 = tail call i32 @__cxa_atexit(void (i8*)* bitcast (void (%"class.std::ios_base::Init"*)* @_ZNSt8ios_base4InitD1Ev to void (i8*)*), i8* getelementptr inbounds (%"class.std::ios_base::Init", %"class.std::ios_base::Init"* @_ZStL8__ioinit, i64 0, i32 0), i8* nonnull @__dso_handle) #8
  ret void
}

; Function Attrs: nofree nosync nounwind readnone willreturn
declare i32 @llvm.vector.reduce.add.v4i32(<4 x i32>) #7


!llvm.module.flags = !{!0, !1, !2, !3}
!llvm.ident = !{!4}

!0 = !{i32 1, !"wchar_size", i32 4}
!1 = !{i32 7, !"PIC Level", i32 2}
!2 = !{i32 7, !"PIE Level", i32 2}
!3 = !{i32 7, !"uwtable", i32 1}
!4 = !{!"clang version 13.0.0"}
!5 = !{!6, !6, i64 0}
!6 = !{!"vtable pointer", !7, i64 0}
!7 = !{!"Simple C++ TBAA"}
!8 = !{!9, !13, i64 32}
!9 = !{!"_ZTSSt8ios_base", !10, i64 8, !10, i64 16, !12, i64 24, !13, i64 28, !13, i64 32, !14, i64 40, !15, i64 48, !11, i64 64, !16, i64 192, !14, i64 200, !17, i64 208}
!10 = !{!"long", !11, i64 0}
!11 = !{!"omnipotent char", !7, i64 0}
!12 = !{!"_ZTSSt13_Ios_Fmtflags", !11, i64 0}
!13 = !{!"_ZTSSt12_Ios_Iostate", !11, i64 0}
!14 = !{!"any pointer", !11, i64 0}
!15 = !{!"_ZTSNSt8ios_base6_WordsE", !14, i64 0, !10, i64 8}
!16 = !{!"int", !11, i64 0}
!17 = !{!"_ZTSSt6locale", !14, i64 0}
!18 = !{!16, !16, i64 0}
!19 = distinct !{!19, !20}
!20 = !{!"llvm.loop.mustprogress"}
!21 = distinct !{!21, !20, !22}
!22 = !{!"llvm.loop.isvectorized", i32 1}
!23 = distinct !{!23, !20, !24, !22}
!24 = !{!"llvm.loop.unroll.runtime.disable"}
!25 = distinct !{!25, !20}
!26 = !{!27, !14, i64 240}
!27 = !{!"_ZTSSt9basic_iosIcSt11char_traitsIcEE", !14, i64 216, !11, i64 224, !28, i64 225, !14, i64 232, !14, i64 240, !14, i64 248, !14, i64 256}
!28 = !{!"bool", !11, i64 0}
!29 = !{!30, !11, i64 56}
!30 = !{!"_ZTSSt5ctypeIcE", !14, i64 16, !28, i64 24, !14, i64 32, !14, i64 40, !14, i64 48, !11, i64 56, !11, i64 57, !11, i64 313, !11, i64 569}
!31 = !{!11, !11, i64 0}
